
Allocating common symbols
Common symbol       size              file

kbBuffer            0x4               ./build/Manager.o
modCount            0x1               ./build/Manager.o
mem_info_h          0x14              ./build/Manager.o
keyboard_info       0x8               ./build/Manager.o
errno               0x4               ./build/HeapMem_SBRK.o
blockedProcesses    0x4               ./build/Manager.o
mb                  0x4               ./build/Manager.o
phys_map            0x4               ./build/Manager.o
process_list        0x4               ./build/Manager.o
malloc              0x4               ./build/Manager.o
gdt                 0x30              ./build/Manager.o
Scheduler_running   0x4               ./build/Manager.o
kheap_top           0x4               ./build/Manager.o
KMod_init           0x180             ./build/Manager.o
PhysMem_allocate    0x4               ./build/Manager.o
blockedCount        0x1               ./build/Manager.o
idt_p               0x6               ./build/Manager.o
kprocess            0x4               ./build/Manager.o
calloc              0x4               ./build/Manager.o
Interrupts_addIRQ   0x4               ./build/Manager.o
handlers            0x400             ./build/Manager.o
currentProcess      0x4               ./build/Manager.o
mb_mods             0x14              ./build/Manager.o
PhysMem_free        0x4               ./build/Manager.o
Interrupts_addISR   0x4               ./build/Manager.o
kernel_end          0x4               ./build/Manager.o
phys_stack          0x4               ./build/Manager.o
tick                0x4               ./build/Manager.o
kdir                0x4               ./build/Manager.o
tss_e               0x68              ./build/Manager.o
phys_bitmap         0x4               ./build/Manager.o
sysInfo             0x5c              ./build/Manager.o
curr_PID            0x4               ./build/Manager.o
idt                 0x800             ./build/Manager.o
FS_mounts           0x4               ./build/Manager.o
mem_info            0x14              ./build/Manager.o
PageSizeExtension_enabled
                    0x4               ./build/Manager.o
currentTime         0x3               ./build/RTC.o
gdt_p               0x6               ./build/Manager.o
free                0x4               ./build/Manager.o

Memory Configuration

Name             Origin             Length             Attributes
*default*        0x0000000000000000 0xffffffffffffffff

Linker script and memory map

                0x00000000c0100000                . = 0xc0100000
                0x00000000c0100000                k_mem_start = .

.text           0x00000000c0100000     0xa401 load address 0x0000000000100000
                0x00000000c0100000                text = .
 *(.text)
 .text          0x00000000c0100000       0x6f ./build/loader.o
                0x00000000c0100000                mbh
                0x00000000c0100020                load
 *fill*         0x00000000c010006f        0x1 
 .text          0x00000000c0100070       0x17 ./build/aCommon.o
                0x00000000c0100070                halt_cpu
                0x00000000c0100071                interrupts_enb
                0x00000000c0100073                interrupts_dis
                0x00000000c0100075                outb
                0x00000000c0100080                inb
 .text          0x00000000c0100087      0x227 ./build/Manager.o
                0x00000000c0100087                Manager_addModules
                0x00000000c0100274                Manager_loadModule
 .text          0x00000000c01002ae      0x2b0 ./build/Kernel.o
                0x00000000c01002ae                Kernel_halt
                0x00000000c01002bb                Kernel_initModule
                0x00000000c01002db                Kernel_panic
                0x00000000c0100312                Kernel_validMagic
                0x00000000c010032c                Kernel_getMBMods
                0x00000000c010036e                Kernel_addKenrelMods
                0x00000000c0100374                Kernel_initMods
                0x00000000c010037a                printSystemInfo
                0x00000000c01004b9                kmain
 .text          0x00000000c010055e       0x74 ./build/Stack.o
                0x00000000c010055e                Stack_push
                0x00000000c010059b                Stack_pop
 .text          0x00000000c01005d2      0x104 ./build/Bitmap.o
                0x00000000c01005d2                Bitmap_checkBit
                0x00000000c010060b                Bitmap_setBit
                0x00000000c010064b                Bitmap_clearBit
                0x00000000c010068d                Bitmap_clearAll
                0x00000000c01006b0                Bitmap_setAll
 .text          0x00000000c01006d6       0x71 ./build/Common.o
                0x00000000c01006d6                memcpy
                0x00000000c0100711                memset
                0x00000000c0100741                empty
 .text          0x00000000c0100747      0x2ab ./build/Debug.o
                0x00000000c0100747                Debug_putChar
                0x00000000c010078c                Debug_putStr
                0x00000000c01007c7                iota
                0x00000000c01008dd                kprintf
 .text          0x00000000c01009f2       0x50 ./build/PIT.o
                0x00000000c01009f2                PIT_init
 .text          0x00000000c0100a42      0x113 ./build/PS2.o
                0x00000000c0100a42                PS2_init
                0x00000000c0100a4c                PS2_enableInt
                0x00000000c0100a99                PS2_inPoll
                0x00000000c0100acc                PS2_outPoll
                0x00000000c0100aff                PS2_send
                0x00000000c0100b31                PS2_rec
 .text          0x00000000c0100b55       0xe8 ./build/PIC.o
                0x00000000c0100b55                PIC_init
                0x00000000c0100c07                PIC_eoi
 .text          0x00000000c0100c3d      0x1e1 ./build/Serial.o
                0x00000000c0100c3d                Serial_init
                0x00000000c0100d4a                Serial_transmitFree
                0x00000000c0100d7b                Serial_putChar
                0x00000000c0100de3                Serial_putStr
 *fill*         0x00000000c0100e1e        0x2 
 .text          0x00000000c0100e20       0x21 ./build/aUser.o
                0x00000000c0100e20                User_switch
 *fill*         0x00000000c0100e41        0xf 
 .text          0x00000000c0100e50       0x25 ./build/aGDT.o
                0x00000000c0100e50                GDT_flush
                0x00000000c0100e6d                TSS_flush
 *fill*         0x00000000c0100e75        0xb 
 .text          0x00000000c0100e80        0xc ./build/aVirtMem_Paging.o
                0x00000000c0100e80                VirtMem_pagefaultAddr
                0x00000000c0100e84                VirtMem_changeDir
 *fill*         0x00000000c0100e8c        0x4 
 .text          0x00000000c0100e90      0x1f1 ./build/aIDT.o
                0x00000000c0100e90                idt_setup
                0x00000000c0100e98                irq0
                0x00000000c0100ea2                irq1
                0x00000000c0100eac                irq2
                0x00000000c0100eb6                irq3
                0x00000000c0100ec0                irq4
                0x00000000c0100eca                irq5
                0x00000000c0100ed4                irq6
                0x00000000c0100ede                irq7
                0x00000000c0100ee8                irq8
                0x00000000c0100ef2                irq9
                0x00000000c0100efc                irq10
                0x00000000c0100f06                irq11
                0x00000000c0100f10                irq12
                0x00000000c0100f1a                irq13
                0x00000000c0100f24                irq14
                0x00000000c0100f2e                irq15
                0x00000000c0100f38                isr8
                0x00000000c0100f40                isr10
                0x00000000c0100f48                isr11
                0x00000000c0100f50                isr12
                0x00000000c0100f58                isr13
                0x00000000c0100f60                isr14
                0x00000000c0100f68                isr17
                0x00000000c0100f70                isr0
                0x00000000c0100f7a                isr1
                0x00000000c0100f84                isr2
                0x00000000c0100f8e                isr3
                0x00000000c0100f98                isr4
                0x00000000c0100fa2                isr5
                0x00000000c0100fac                isr6
                0x00000000c0100fb6                isr7
                0x00000000c0100fc0                isr9
                0x00000000c0100fc7                isr15
                0x00000000c0100fce                isr16
                0x00000000c0100fd5                isr18
                0x00000000c0100fdc                isr19
                0x00000000c0100fe3                isr20
                0x00000000c0100fea                isr21
                0x00000000c0100ff1                isr22
                0x00000000c0100ff8                isr23
                0x00000000c0100fff                isr24
                0x00000000c0101006                isr25
                0x00000000c010100d                isr26
                0x00000000c0101014                isr27
                0x00000000c010101b                isr28
                0x00000000c0101022                isr29
                0x00000000c0101029                isr30
                0x00000000c0101030                isr31
                0x00000000c0101037                isr128
 .text          0x00000000c0101081      0x1e7 ./build/TarParser.o
                0x00000000c0101081                Tar_getInt
                0x00000000c010111a                Tar_validHeader
                0x00000000c010118d                Tar_nextHeader
                0x00000000c01011de                Tar_countHeaders
                0x00000000c0101217                Tar_getHeaderAtIndex
 .text          0x00000000c0101268      0x321 ./build/RamDisk.o
                0x00000000c0101268                RamDisk_getDepth
                0x00000000c01012b5                RamDisk_onlyFileName
                0x00000000c01012eb                RamDisk_filenameCmp
                0x00000000c010132a                RamDisk_scanTar
                0x00000000c01013fc                RamDisk_readFile
                0x00000000c0101459                RamDisk_init
 .text          0x00000000c0101589      0x268 ./build/LinkedList.o
                0x00000000c0101589                LinkedList_create
                0x00000000c01015c5                LinkedList_destroy
                0x00000000c010161f                LinkedList_addNode
                0x00000000c010169a                LinkedList_removeNode
                0x00000000c0101767                LinkedList_getNodeByIndex
                0x00000000c01017bb                LinkedList_getNodeByData
 .text          0x00000000c01017f1      0x682 ./build/Process.o
                0x00000000c01017f1                Process_createKernelProcess
                0x00000000c010195f                Process_getKProcess
                0x00000000c0101969                Process_setTSS
                0x00000000c01019f6                Process_createUserProcess
                0x00000000c0101caf                Process_blockProcess
                0x00000000c0101cc6                Process_createChild
                0x00000000c0101ceb                Process_kill
                0x00000000c0101d3b                Process_makeForeground
                0x00000000c0101d6f                Process_fSwitch
                0x00000000c0101d7f                Process_contextSwitch
                0x00000000c0101e5b                Process_init
 .text          0x00000000c0101e73      0x1e1 ./build/Scheduler_RR.o
                0x00000000c0101e73                Scheduler_RR_init
                0x00000000c0101ebc                PIT_handler
                0x00000000c0101f1d                Scheduler_getCurrent
                0x00000000c0101f37                Scheduler_addProcess
                0x00000000c0101f9f                Scheduler_removeProcess
                0x00000000c0101ff0                Scheduler_nextProcess
 .text          0x00000000c0102054       0x69 ./build/Syscall.o
                0x00000000c0102054                Syscall_handle
 .text          0x00000000c01020bd       0xfb ./build/User.o
                0x00000000c01020bd                User_switchTo
 .text          0x00000000c01021b8      0x436 ./build/PhysMem_Hybrid.o
                0x00000000c01021b8                PhysMem_Hybrid_free
                0x00000000c01021ff                PhysMem_Hybrid_allocate
                0x00000000c010228c                PhysMem_Hybrid_init
                0x00000000c010255b                printMemInfoHybrid
 .text          0x00000000c01025ee      0x319 ./build/GDT.o
                0x00000000c01025ee                GDT_set
                0x00000000c01026d0                TSS_init
                0x00000000c01027fe                GDT_init
 .text          0x00000000c0102907      0x2e3 ./build/VGA.o
                0x00000000c0102907                VGA_init
                0x00000000c0102924                VGA_update
                0x00000000c010299e                VGA_cls
                0x00000000c0102a20                VGA_scroll
                0x00000000c0102aae                VGA_putChar
                0x00000000c0102ba0                VGA_putStr
                0x00000000c0102bd0                VGA_colourError
                0x00000000c0102bdd                VGA_standardColour
 .text          0x00000000c0102bea      0x256 ./build/Keyboard.o
                0x00000000c0102bea                Keyboard_init
                0x00000000c0102c15                Keyboard_getNewBuffer
                0x00000000c0102c86                Keyboard_bufferRead
                0x00000000c0102cf7                Keyboard_bufferWrite
                0x00000000c0102d56                kb_handler
                0x00000000c0102e0d                Keyboard_getInput
 .text          0x00000000c0102e40      0x162 ./build/RTC.o
                0x00000000c0102e40                RTC_init
                0x00000000c0102e4a                RTC_updateInProgress
                0x00000000c0102e76                RTC_getValue
                0x00000000c0102ea6                RTC_bcdConvert
                0x00000000c0102ed4                RTC_bcdMode
                0x00000000c0102efe                RTC_printTime
 .text          0x00000000c0102fa2      0x3a3 ./build/VFS.o
                0x00000000c0102fa2                VFS_init
                0x00000000c0102fb9                VFS_nextMountId
                0x00000000c010301d                VFS_mount
                0x00000000c01030a3                VFS_unmount
                0x00000000c010311b                VFS_nameCmp
                0x00000000c010315a                VFS_findNode
                0x00000000c01031c5                VFS_open
                0x00000000c010321e                VFS_fileInfo
                0x00000000c010323d                VFS_getFileSize
                0x00000000c010329b                VFS_getFileAtIndex
                0x00000000c010331f                VFS_read
 .text          0x00000000c0103345      0x38a ./build/PhysMem_Bitmap.o
                0x00000000c0103345                PhysMem_Bitmap_free
                0x00000000c010336b                PhysMem_Bitmap_allocate
                0x00000000c01033d9                PhysMem_Bitmap_init
                0x00000000c01035db                printMemInfo
 .text          0x00000000c01036cf      0x8a3 ./build/VirtMem_Paging.o
                0x00000000c01036cf                VirtMem_handlePageFault
                0x00000000c010370c                VirtMem_disablePSE
                0x00000000c0103742                VirtMem_invalidateTLBE
                0x00000000c010374e                VirtMem_mapToCurrent
                0x00000000c01037ec                VirtMem_initPDE
                0x00000000c01038aa                VirtMem_initPTE
                0x00000000c0103968                VirtMem_virt2Phys
                0x00000000c0103a33                VirtMem_createDir
                0x00000000c0103b11                VirtMem_freeDir
                0x00000000c0103b17                VirtMem_mapPage
                0x00000000c0103c2f                VirtMem_unmapPage
                0x00000000c0103d2c                VirtMem_cpyDir
                0x00000000c0103ed0                VirtMem_getKDIR
                0x00000000c0103eda                VirtMem_Paging_init
 .text          0x00000000c0103f72       0x40 ./build/Faults.o
                0x00000000c0103f72                Faults_handle
 .text          0x00000000c0103fb2      0x73d ./build/IDT.o
                0x00000000c0103fb2                IDT_set
                0x00000000c010403d                IDT_installISR
                0x00000000c01043c3                IDT_installIRQ
                0x00000000c01045a8                IDT_init
                0x00000000c0104617                IDT_handle
                0x00000000c0104688                IDT_addISR
                0x00000000c01046a5                IDT_addIRQ
 .text          0x00000000c01046ef      0x28d ./build/HeapMem_SBRK.o
                0x00000000c01046ef                HeapMem_SBRK_init
                0x00000000c010472b                HeapMem_KSBRK
                0x00000000c0104888                HeapMem_SBRK
 .text          0x00000000c010497c     0x5a85 ./build/malloc.o
                0x00000000c0107e4c                dlmalloc
                0x00000000c0108349                dlfree
                0x00000000c01090d3                dlcalloc
                0x00000000c0109f80                dlrealloc
                0x00000000c010a07f                dlrealloc_in_place
                0x00000000c010a0f6                dlmemalign
                0x00000000c010a12a                dlposix_memalign
                0x00000000c010a1d1                dlvalloc
                0x00000000c010a203                dlpvalloc
                0x00000000c010a245                dlindependent_calloc
                0x00000000c010a26f                dlindependent_comalloc
                0x00000000c010a292                dlbulk_free
                0x00000000c010a2b0                dlmalloc_trim
                0x00000000c010a2e9                dlmalloc_footprint
                0x00000000c010a2f3                dlmalloc_max_footprint
                0x00000000c010a2fd                dlmalloc_footprint_limit
                0x00000000c010a31d                dlmalloc_set_footprint_limit
                0x00000000c010a373                dlmallinfo
                0x00000000c010a394                dlmallopt
                0x00000000c010a3ad                dlmalloc_usable_size

.iplt           0x00000000c010a408        0x0 load address 0x000000000010a408
 .iplt          0x00000000c010a408        0x0 ./build/loader.o

.rodata         0x00000000c010b000      0x813 load address 0x000000000010b000
 *(.rodata*)
 .rodata        0x00000000c010b000      0x18d ./build/Kernel.o
 *fill*         0x00000000c010b18d        0x3 
 .rodata        0x00000000c010b190       0xe9 ./build/Debug.o
 .rodata        0x00000000c010b279       0x1b ./build/Serial.o
 .rodata        0x00000000c010b294       0x1b ./build/TarParser.o
 *fill*         0x00000000c010b2af        0x1 
 .rodata        0x00000000c010b2b0       0x2b ./build/RamDisk.o
 .rodata        0x00000000c010b2db       0x1b ./build/Process.o
 .rodata        0x00000000c010b2f6       0x2e ./build/Scheduler_RR.o
 .rodata        0x00000000c010b324       0x87 ./build/User.o
 *fill*         0x00000000c010b3ab        0x1 
 .rodata        0x00000000c010b3ac       0xd9 ./build/PhysMem_Hybrid.o
 .rodata        0x00000000c010b485       0x10 ./build/RTC.o
 *fill*         0x00000000c010b495        0x3 
 .rodata        0x00000000c010b498       0xed ./build/PhysMem_Bitmap.o
 *fill*         0x00000000c010b585        0x3 
 .rodata        0x00000000c010b588       0x68 ./build/VirtMem_Paging.o
 .rodata        0x00000000c010b5f0      0x1af ./build/Faults.o
 .rodata        0x00000000c010b79f       0x1b ./build/IDT.o
 *fill*         0x00000000c010b7ba        0x2 
 .rodata        0x00000000c010b7bc       0x57 ./build/HeapMem_SBRK.o

.eh_frame       0x00000000c010b814     0x1770 load address 0x000000000010b814
 .eh_frame      0x00000000c010b814       0x58 ./build/Manager.o
 .eh_frame      0x00000000c010b86c      0x11c ./build/Kernel.o
                                        0x134 (size before relaxing)
 .eh_frame      0x00000000c010b988       0x40 ./build/Stack.o
                                         0x58 (size before relaxing)
 .eh_frame      0x00000000c010b9c8       0xac ./build/Bitmap.o
                                         0xc4 (size before relaxing)
 .eh_frame      0x00000000c010ba74       0x60 ./build/Common.o
                                         0x78 (size before relaxing)
 .eh_frame      0x00000000c010bad4       0x88 ./build/Debug.o
                                         0xa0 (size before relaxing)
 .eh_frame      0x00000000c010bb5c       0x20 ./build/PIT.o
                                         0x38 (size before relaxing)
 .eh_frame      0x00000000c010bb7c       0xc0 ./build/PS2.o
                                         0xd8 (size before relaxing)
 .eh_frame      0x00000000c010bc3c       0x40 ./build/PIC.o
                                         0x58 (size before relaxing)
 .eh_frame      0x00000000c010bc7c       0x80 ./build/Serial.o
                                         0x98 (size before relaxing)
 .eh_frame      0x00000000c010bcfc       0xa0 ./build/TarParser.o
                                         0xb8 (size before relaxing)
 .eh_frame      0x00000000c010bd9c       0xc0 ./build/RamDisk.o
                                         0xd8 (size before relaxing)
 .eh_frame      0x00000000c010be5c       0xc0 ./build/LinkedList.o
                                         0xd8 (size before relaxing)
 .eh_frame      0x00000000c010bf1c      0x168 ./build/Process.o
                                        0x180 (size before relaxing)
 .eh_frame      0x00000000c010c084       0xc0 ./build/Scheduler_RR.o
                                         0xd8 (size before relaxing)
 .eh_frame      0x00000000c010c144       0x2c ./build/Syscall.o
                                         0x44 (size before relaxing)
 .eh_frame      0x00000000c010c170       0x20 ./build/User.o
                                         0x38 (size before relaxing)
 .eh_frame      0x00000000c010c190       0x84 ./build/PhysMem_Hybrid.o
                                         0x9c (size before relaxing)
 .eh_frame      0x00000000c010c214       0x68 ./build/GDT.o
                                         0x80 (size before relaxing)
 .eh_frame      0x00000000c010c27c      0x100 ./build/VGA.o
                                        0x118 (size before relaxing)
 .eh_frame      0x00000000c010c37c       0xc0 ./build/Keyboard.o
                                         0xd8 (size before relaxing)
 .eh_frame      0x00000000c010c43c       0xc0 ./build/RTC.o
                                         0xd8 (size before relaxing)
 .eh_frame      0x00000000c010c4fc      0x164 ./build/VFS.o
                                        0x17c (size before relaxing)
 .eh_frame      0x00000000c010c660       0x84 ./build/PhysMem_Bitmap.o
                                         0x9c (size before relaxing)
 .eh_frame      0x00000000c010c6e4      0x1d4 ./build/VirtMem_Paging.o
                                        0x1ec (size before relaxing)
 .eh_frame      0x00000000c010c8b8       0x20 ./build/Faults.o
                                         0x38 (size before relaxing)
 .eh_frame      0x00000000c010c8d8       0xe8 ./build/IDT.o
                                        0x100 (size before relaxing)
 .eh_frame      0x00000000c010c9c0       0x64 ./build/HeapMem_SBRK.o
                                         0x7c (size before relaxing)
 .eh_frame      0x00000000c010ca24      0x560 ./build/malloc.o
                                        0x578 (size before relaxing)

.rel.dyn        0x00000000c010cf84        0x0 load address 0x000000000010cf84
 .rel.got       0x00000000c010cf84        0x0 ./build/loader.o
 .rel.iplt      0x00000000c010cf84        0x0 ./build/loader.o
 .rel.text      0x00000000c010cf84        0x0 ./build/loader.o

.data           0x00000000c010d000     0x1900 load address 0x000000000010d000
 *(.data)
 .data          0x00000000c010d000     0x1000 ./build/loader.o
                0x00000000c010d000                Initial_Page_Dir
 .data          0x00000000c010e000      0x100 ./build/Manager.o
 .data          0x00000000c010e100        0x0 ./build/Kernel.o
 .data          0x00000000c010e100        0x0 ./build/Stack.o
 .data          0x00000000c010e100        0x0 ./build/Bitmap.o
 .data          0x00000000c010e100        0x0 ./build/Common.o
 .data          0x00000000c010e100        0x4 ./build/Debug.o
 .data          0x00000000c010e104        0x0 ./build/PIT.o
 .data          0x00000000c010e104        0x0 ./build/PS2.o
 .data          0x00000000c010e104        0x0 ./build/PIC.o
 .data          0x00000000c010e104       0x10 ./build/Serial.o
                0x00000000c010e104                com
 .data          0x00000000c010e114        0x0 ./build/aIDT.o
 .data          0x00000000c010e114        0x0 ./build/TarParser.o
 .data          0x00000000c010e114        0x0 ./build/RamDisk.o
 .data          0x00000000c010e114        0x0 ./build/LinkedList.o
 *fill*         0x00000000c010e114        0xc 
 .data          0x00000000c010e120      0x100 ./build/Process.o
 .data          0x00000000c010e220      0x100 ./build/Scheduler_RR.o
 .data          0x00000000c010e320      0x140 ./build/Syscall.o
                0x00000000c010e420                Syscall_map
 .data          0x00000000c010e460      0x100 ./build/User.o
 .data          0x00000000c010e560        0x0 ./build/PhysMem_Hybrid.o
 .data          0x00000000c010e560      0x100 ./build/GDT.o
 .data          0x00000000c010e660        0x4 ./build/VGA.o
                0x00000000c010e660                VGA_FRAMEBUFFER
 *fill*         0x00000000c010e664       0x1c 
 .data          0x00000000c010e680      0x100 ./build/Keyboard.o
 .data          0x00000000c010e780        0x0 ./build/RTC.o
 .data          0x00000000c010e780        0x0 ./build/VFS.o
 .data          0x00000000c010e780        0x0 ./build/PhysMem_Bitmap.o
 .data          0x00000000c010e780        0x0 ./build/VirtMem_Paging.o
 .data          0x00000000c010e780       0x80 ./build/Faults.o
 .data          0x00000000c010e800        0x0 ./build/IDT.o
 .data          0x00000000c010e800      0x100 ./build/HeapMem_SBRK.o
 .data          0x00000000c010e900        0x0 ./build/malloc.o

.got            0x00000000c010e900        0x0 load address 0x000000000010e900
 .got           0x00000000c010e900        0x0 ./build/loader.o

.got.plt        0x00000000c010e900        0x0 load address 0x000000000010e900
 .got.plt       0x00000000c010e900        0x0 ./build/loader.o

.igot.plt       0x00000000c010e900        0x0 load address 0x000000000010e900
 .igot.plt      0x00000000c010e900        0x0 ./build/loader.o

.bss            0x00000000c010f000     0x51b0 load address 0x000000000010f000
                0x00000000c010f000                bssstart = .
 *(.COMMON)
 *(.bss)
 .bss           0x00000000c010f000     0x4000 ./build/loader.o
 .bss           0x00000000c0113000        0x9 ./build/Manager.o
 .bss           0x00000000c0113009        0x0 ./build/Kernel.o
 .bss           0x00000000c0113009        0x0 ./build/Stack.o
 .bss           0x00000000c0113009        0x0 ./build/Bitmap.o
 .bss           0x00000000c0113009        0x0 ./build/Common.o
 *fill*         0x00000000c0113009        0x3 
 .bss           0x00000000c011300c        0x9 ./build/Debug.o
 .bss           0x00000000c0113015        0x0 ./build/PIT.o
 .bss           0x00000000c0113015        0x0 ./build/PS2.o
 .bss           0x00000000c0113015        0x0 ./build/PIC.o
 .bss           0x00000000c0113015        0x0 ./build/Serial.o
 *fill*         0x00000000c0113015        0x3 
 .bss           0x00000000c0113018        0x0 ./build/aIDT.o
 .bss           0x00000000c0113018        0x0 ./build/TarParser.o
 .bss           0x00000000c0113018        0x0 ./build/RamDisk.o
 .bss           0x00000000c0113018        0x0 ./build/LinkedList.o
 .bss           0x00000000c0113018        0x0 ./build/Process.o
 .bss           0x00000000c0113018        0x0 ./build/Scheduler_RR.o
 .bss           0x00000000c0113018        0x9 ./build/Syscall.o
 .bss           0x00000000c0113021        0x0 ./build/User.o
 .bss           0x00000000c0113021        0x0 ./build/PhysMem_Hybrid.o
 .bss           0x00000000c0113021        0x0 ./build/GDT.o
 *fill*         0x00000000c0113021        0x3 
 .bss           0x00000000c0113024        0x9 ./build/VGA.o
 *fill*         0x00000000c011302d        0x3 
 .bss           0x00000000c0113030        0x4 ./build/Keyboard.o
                0x00000000c0113030                blocking
 .bss           0x00000000c0113034        0x0 ./build/RTC.o
 .bss           0x00000000c0113034        0x0 ./build/VFS.o
 .bss           0x00000000c0113034        0x0 ./build/PhysMem_Bitmap.o
 .bss           0x00000000c0113034        0x0 ./build/VirtMem_Paging.o
 .bss           0x00000000c0113034        0x0 ./build/Faults.o
 .bss           0x00000000c0113034        0x0 ./build/IDT.o
 .bss           0x00000000c0113034        0x0 ./build/HeapMem_SBRK.o
 *fill*         0x00000000c0113034        0xc 
 .bss           0x00000000c0113040      0x1f8 ./build/malloc.o
                0x00000000c0113238                bssend = .
 *fill*         0x00000000c0113238        0x8 
 COMMON         0x00000000c0113240      0xf68 ./build/Manager.o
                0x00000000c0113240                kbBuffer
                0x00000000c0113244                modCount
                0x00000000c0113248                mem_info_h
                0x00000000c011325c                keyboard_info
                0x00000000c0113264                blockedProcesses
                0x00000000c0113268                mb
                0x00000000c011326c                phys_map
                0x00000000c0113270                process_list
                0x00000000c0113274                malloc
                0x00000000c0113280                gdt
                0x00000000c01132b0                Scheduler_running
                0x00000000c01132b4                kheap_top
                0x00000000c01132c0                KMod_init
                0x00000000c0113440                PhysMem_allocate
                0x00000000c0113444                blockedCount
                0x00000000c0113448                idt_p
                0x00000000c0113450                kprocess
                0x00000000c0113454                calloc
                0x00000000c0113458                Interrupts_addIRQ
                0x00000000c0113460                handlers
                0x00000000c0113860                currentProcess
                0x00000000c0113864                mb_mods
                0x00000000c0113878                PhysMem_free
                0x00000000c011387c                Interrupts_addISR
                0x00000000c0113880                kernel_end
                0x00000000c0113884                phys_stack
                0x00000000c0113888                tick
                0x00000000c011388c                kdir
                0x00000000c01138a0                tss_e
                0x00000000c0113908                phys_bitmap
                0x00000000c0113920                sysInfo
                0x00000000c011397c                curr_PID
                0x00000000c0113980                idt
                0x00000000c0114180                FS_mounts
                0x00000000c0114184                mem_info
                0x00000000c0114198                PageSizeExtension_enabled
                0x00000000c011419c                gdt_p
                0x00000000c01141a4                free
 COMMON         0x00000000c01141a8        0x3 ./build/RTC.o
                0x00000000c01141a8                currentTime
 *fill*         0x00000000c01141ab        0x1 
 COMMON         0x00000000c01141ac        0x4 ./build/HeapMem_SBRK.o
                0x00000000c01141ac                errno
                0x00000000c01141b0                k_mem_end = .
LOAD ./build/loader.o
LOAD ./build/aCommon.o
LOAD ./build/Manager.o
LOAD ./build/Kernel.o
LOAD ./build/Stack.o
LOAD ./build/Bitmap.o
LOAD ./build/Common.o
LOAD ./build/Debug.o
LOAD ./build/PIT.o
LOAD ./build/PS2.o
LOAD ./build/PIC.o
LOAD ./build/Serial.o
LOAD ./build/aUser.o
LOAD ./build/aGDT.o
LOAD ./build/aVirtMem_Paging.o
LOAD ./build/aIDT.o
LOAD ./build/TarParser.o
LOAD ./build/RamDisk.o
LOAD ./build/LinkedList.o
LOAD ./build/Process.o
LOAD ./build/Scheduler_RR.o
LOAD ./build/Syscall.o
LOAD ./build/User.o
LOAD ./build/PhysMem_Hybrid.o
LOAD ./build/GDT.o
LOAD ./build/VGA.o
LOAD ./build/Keyboard.o
LOAD ./build/RTC.o
LOAD ./build/VFS.o
LOAD ./build/PhysMem_Bitmap.o
LOAD ./build/VirtMem_Paging.o
LOAD ./build/Faults.o
LOAD ./build/IDT.o
LOAD ./build/HeapMem_SBRK.o
LOAD ./build/malloc.o
OUTPUT(./bin/FantomOS.bin elf32-i386)

.comment        0x0000000000000000       0x11
 .comment       0x0000000000000000       0x11 ./build/Manager.o
                                         0x12 (size before relaxing)
 .comment       0x0000000000000011       0x12 ./build/Kernel.o
 .comment       0x0000000000000011       0x12 ./build/Stack.o
 .comment       0x0000000000000011       0x12 ./build/Bitmap.o
 .comment       0x0000000000000011       0x12 ./build/Common.o
 .comment       0x0000000000000011       0x12 ./build/Debug.o
 .comment       0x0000000000000011       0x12 ./build/PIT.o
 .comment       0x0000000000000011       0x12 ./build/PS2.o
 .comment       0x0000000000000011       0x12 ./build/PIC.o
 .comment       0x0000000000000011       0x12 ./build/Serial.o
 .comment       0x0000000000000011       0x12 ./build/TarParser.o
 .comment       0x0000000000000011       0x12 ./build/RamDisk.o
 .comment       0x0000000000000011       0x12 ./build/LinkedList.o
 .comment       0x0000000000000011       0x12 ./build/Process.o
 .comment       0x0000000000000011       0x12 ./build/Scheduler_RR.o
 .comment       0x0000000000000011       0x12 ./build/Syscall.o
 .comment       0x0000000000000011       0x12 ./build/User.o
 .comment       0x0000000000000011       0x12 ./build/PhysMem_Hybrid.o
 .comment       0x0000000000000011       0x12 ./build/GDT.o
 .comment       0x0000000000000011       0x12 ./build/VGA.o
 .comment       0x0000000000000011       0x12 ./build/Keyboard.o
 .comment       0x0000000000000011       0x12 ./build/RTC.o
 .comment       0x0000000000000011       0x12 ./build/VFS.o
 .comment       0x0000000000000011       0x12 ./build/PhysMem_Bitmap.o
 .comment       0x0000000000000011       0x12 ./build/VirtMem_Paging.o
 .comment       0x0000000000000011       0x12 ./build/Faults.o
 .comment       0x0000000000000011       0x12 ./build/IDT.o
 .comment       0x0000000000000011       0x12 ./build/HeapMem_SBRK.o
 .comment       0x0000000000000011       0x12 ./build/malloc.o
